target datalayout = "e-m:e-p270:32:32-p271:32:32-p272:64:64-i64:64-i128:128-f80:128-n8:16:32:64-S128"
target triple = "x86_64-pc-linux-gnu"

%struct.dbd_job_heavy_msg_t = type { ptr, ptr, ptr, ptr, ptr }
%struct.buf_t = type { i32, ptr, i32, i32, i8, i8 }

; Function Attrs: nounwind uwtable
define internal void @_pack_job_heavy_msg(ptr noundef %0, i16 noundef zeroext %1, ptr noundef %2) #0 {
  %4 = alloca ptr, align 8
  %5 = alloca i16, align 2
  %6 = alloca ptr, align 8
  %7 = alloca ptr, align 8
  %8 = alloca i32, align 4
  %9 = alloca i32, align 4
  %10 = alloca i32, align 4
  %11 = alloca i32, align 4
  store ptr %0, ptr %4, align 8
  store i16 %1, ptr %5, align 2
  store ptr %2, ptr %6, align 8
  call void @llvm.lifetime.start.p0(i64 8, ptr %7) #5
  %12 = load ptr, ptr %4, align 8
  store ptr %12, ptr %7, align 8
  %13 = load ptr, ptr %7, align 8
  %14 = getelementptr inbounds nuw %struct.dbd_job_heavy_msg_t, ptr %13, i32 0, i32 4
  %15 = load ptr, ptr %14, align 8
  %16 = icmp ne ptr %15, null
  br i1 %16, label %17, label %25

17:                                               ; preds = %3
  %18 = load ptr, ptr %7, align 8
  %19 = getelementptr inbounds nuw %struct.dbd_job_heavy_msg_t, ptr %18, i32 0, i32 4
  %20 = load ptr, ptr %19, align 8
  %21 = getelementptr inbounds nuw %struct.buf_t, ptr %20, i32 0, i32 1
  %22 = load ptr, ptr %21, align 8
  %23 = load ptr, ptr %7, align 8
  %24 = getelementptr inbounds nuw %struct.dbd_job_heavy_msg_t, ptr %23, i32 0, i32 2
  store ptr %22, ptr %24, align 8
  br label %25

25:                                               ; preds = %17, %3
  %26 = load i16, ptr %5, align 2
  %27 = zext i16 %26 to i32
  %28 = icmp sge i32 %27, 10240
  br i1 %28, label %29, label %110

29:                                               ; preds = %25
  br label %30

30:                                               ; preds = %29
  call void @llvm.lifetime.start.p0(i64 4, ptr %8) #5
  store i32 0, ptr %8, align 4
  %31 = load ptr, ptr %7, align 8
  %32 = getelementptr inbounds nuw %struct.dbd_job_heavy_msg_t, ptr %31, i32 0, i32 0
  %33 = load ptr, ptr %32, align 8
  %34 = icmp ne ptr %33, null
  br i1 %34, label %35, label %42

35:                                               ; preds = %30
  %36 = load ptr, ptr %7, align 8
  %37 = getelementptr inbounds nuw %struct.dbd_job_heavy_msg_t, ptr %36, i32 0, i32 0
  %38 = load ptr, ptr %37, align 8
  %39 = call i64 @strlen(ptr noundef %38) #6
  %40 = trunc i64 %39 to i32
  %41 = add i32 %40, 1
  store i32 %41, ptr %8, align 4
  br label %42

42:                                               ; preds = %35, %30
  %43 = load ptr, ptr %7, align 8
  %44 = getelementptr inbounds nuw %struct.dbd_job_heavy_msg_t, ptr %43, i32 0, i32 0
  %45 = load ptr, ptr %44, align 8
  %46 = load i32, ptr %8, align 4
  %47 = load ptr, ptr %6, align 8
  call void @packmem(ptr noundef %45, i32 noundef %46, ptr noundef %47)
  call void @llvm.lifetime.end.p0(i64 4, ptr %8) #5
  br label %48

48:                                               ; preds = %42
  br label %49

49:                                               ; preds = %48
  br label %50

50:                                               ; preds = %49
  call void @llvm.lifetime.start.p0(i64 4, ptr %9) #5
  store i32 0, ptr %9, align 4
  %51 = load ptr, ptr %7, align 8
  %52 = getelementptr inbounds nuw %struct.dbd_job_heavy_msg_t, ptr %51, i32 0, i32 1
  %53 = load ptr, ptr %52, align 8
  %54 = icmp ne ptr %53, null
  br i1 %54, label %55, label %62

55:                                               ; preds = %50
  %56 = load ptr, ptr %7, align 8
  %57 = getelementptr inbounds nuw %struct.dbd_job_heavy_msg_t, ptr %56, i32 0, i32 1
  %58 = load ptr, ptr %57, align 8
  %59 = call i64 @strlen(ptr noundef %58) #6
  %60 = trunc i64 %59 to i32
  %61 = add i32 %60, 1
  store i32 %61, ptr %9, align 4
  br label %62

62:                                               ; preds = %55, %50
  %63 = load ptr, ptr %7, align 8
  %64 = getelementptr inbounds nuw %struct.dbd_job_heavy_msg_t, ptr %63, i32 0, i32 1
  %65 = load ptr, ptr %64, align 8
  %66 = load i32, ptr %9, align 4
  %67 = load ptr, ptr %6, align 8
  call void @packmem(ptr noundef %65, i32 noundef %66, ptr noundef %67)
  call void @llvm.lifetime.end.p0(i64 4, ptr %9) #5
  br label %68

68:                                               ; preds = %62
  br label %69

69:                                               ; preds = %68
  br label %70

70:                                               ; preds = %69
  call void @llvm.lifetime.start.p0(i64 4, ptr %10) #5
  store i32 0, ptr %10, align 4
  %71 = load ptr, ptr %7, align 8
  %72 = getelementptr inbounds nuw %struct.dbd_job_heavy_msg_t, ptr %71, i32 0, i32 2
  %73 = load ptr, ptr %72, align 8
  %74 = icmp ne ptr %73, null
  br i1 %74, label %75, label %82

75:                                               ; preds = %70
  %76 = load ptr, ptr %7, align 8
  %77 = getelementptr inbounds nuw %struct.dbd_job_heavy_msg_t, ptr %76, i32 0, i32 2
  %78 = load ptr, ptr %77, align 8
  %79 = call i64 @strlen(ptr noundef %78) #6
  %80 = trunc i64 %79 to i32
  %81 = add i32 %80, 1
  store i32 %81, ptr %10, align 4
  br label %82

82:                                               ; preds = %75, %70
  %83 = load ptr, ptr %7, align 8
  %84 = getelementptr inbounds nuw %struct.dbd_job_heavy_msg_t, ptr %83, i32 0, i32 2
  %85 = load ptr, ptr %84, align 8
  %86 = load i32, ptr %10, align 4
  %87 = load ptr, ptr %6, align 8
  call void @packmem(ptr noundef %85, i32 noundef %86, ptr noundef %87)
  call void @llvm.lifetime.end.p0(i64 4, ptr %10) #5
  br label %88

88:                                               ; preds = %82
  br label %89

89:                                               ; preds = %88
  br label %90

90:                                               ; preds = %89
  call void @llvm.lifetime.start.p0(i64 4, ptr %11) #5
  store i32 0, ptr %11, align 4
  %91 = load ptr, ptr %7, align 8
  %92 = getelementptr inbounds nuw %struct.dbd_job_heavy_msg_t, ptr %91, i32 0, i32 3
  %93 = load ptr, ptr %92, align 8
  %94 = icmp ne ptr %93, null
  br i1 %94, label %95, label %102

95:                                               ; preds = %90
  %96 = load ptr, ptr %7, align 8
  %97 = getelementptr inbounds nuw %struct.dbd_job_heavy_msg_t, ptr %96, i32 0, i32 3
  %98 = load ptr, ptr %97, align 8
  %99 = call i64 @strlen(ptr noundef %98) #6
  %100 = trunc i64 %99 to i32
  %101 = add i32 %100, 1
  store i32 %101, ptr %11, align 4
  br label %102

102:                                              ; preds = %95, %90
  %103 = load ptr, ptr %7, align 8
  %104 = getelementptr inbounds nuw %struct.dbd_job_heavy_msg_t, ptr %103, i32 0, i32 3
  %105 = load ptr, ptr %104, align 8
  %106 = load i32, ptr %11, align 4
  %107 = load ptr, ptr %6, align 8
  call void @packmem(ptr noundef %105, i32 noundef %106, ptr noundef %107)
  call void @llvm.lifetime.end.p0(i64 4, ptr %11) #5
  br label %108

108:                                              ; preds = %102
  br label %109

109:                                              ; preds = %108
  br label %110

110:                                              ; preds = %109, %25
  %111 = load ptr, ptr %7, align 8
  %112 = getelementptr inbounds nuw %struct.dbd_job_heavy_msg_t, ptr %111, i32 0, i32 4
  %113 = load ptr, ptr %112, align 8
  %114 = icmp ne ptr %113, null
  br i1 %114, label %115, label %118

115:                                              ; preds = %110
  %116 = load ptr, ptr %7, align 8
  %117 = getelementptr inbounds nuw %struct.dbd_job_heavy_msg_t, ptr %116, i32 0, i32 2
  store ptr null, ptr %117, align 8
  br label %118

118:                                              ; preds = %115, %110
  call void @llvm.lifetime.end.p0(i64 8, ptr %7) #5
  ret void
}