; Function Attrs: nounwind uwtable
define internal void @_pack_job_heavy_msg(ptr noundef captures(none) %0, i16 noundef zeroext %1, ptr noundef %2) #0 {
  %4 = getelementptr inbounds nuw i8, ptr %0, i64 32
  %5 = load ptr, ptr %4, align 8
  %.not = icmp eq ptr %5, null
  br i1 %.not, label %10, label %6

6:                                                ; preds = %3
  %7 = getelementptr inbounds nuw i8, ptr %5, i64 8
  %8 = load ptr, ptr %7, align 8
  %9 = getelementptr inbounds nuw i8, ptr %0, i64 16
  store ptr %8, ptr %9, align 8
  br label %10

10:                                               ; preds = %6, %3
  %11 = icmp ugt i16 %1, 10239
  br i1 %11, label %12, label %40

12:                                               ; preds = %10
  %13 = load ptr, ptr %0, align 8
  %.not34 = icmp eq ptr %13, null
  br i1 %.not34, label %18, label %14

14:                                               ; preds = %12
  %15 = tail call i64 @strlen(ptr noundef nonnull dereferenceable(1) %13) #7
  %16 = trunc i64 %15 to i32
  %17 = add i32 %16, 1
  br label %18

18:                                               ; preds = %14, %12
  %.028 = phi i32 [ %17, %14 ], [ 0, %12 ]
  tail call void @packmem(ptr noundef %13, i32 noundef %.028, ptr noundef %2) #5
  %19 = getelementptr inbounds nuw i8, ptr %0, i64 8
  %20 = load ptr, ptr %19, align 8
  %.not35 = icmp eq ptr %20, null
  br i1 %.not35, label %25, label %21

21:                                               ; preds = %18
  %22 = tail call i64 @strlen(ptr noundef nonnull dereferenceable(1) %20) #7
  %23 = trunc i64 %22 to i32
  %24 = add i32 %23, 1
  br label %25

25:                                               ; preds = %21, %18
  %.027 = phi i32 [ %24, %21 ], [ 0, %18 ]
  tail call void @packmem(ptr noundef %20, i32 noundef %.027, ptr noundef %2) #5
  %26 = getelementptr inbounds nuw i8, ptr %0, i64 16
  %27 = load ptr, ptr %26, align 8
  %.not36 = icmp eq ptr %27, null
  br i1 %.not36, label %32, label %28

28:                                               ; preds = %25
  %29 = tail call i64 @strlen(ptr noundef nonnull dereferenceable(1) %27) #7
  %30 = trunc i64 %29 to i32
  %31 = add i32 %30, 1
  br label %32

32:                                               ; preds = %28, %25
  %.026 = phi i32 [ %31, %28 ], [ 0, %25 ]
  tail call void @packmem(ptr noundef %27, i32 noundef %.026, ptr noundef %2) #5
  %33 = getelementptr inbounds nuw i8, ptr %0, i64 24
  %34 = load ptr, ptr %33, align 8
  %.not37 = icmp eq ptr %34, null
  br i1 %.not37, label %39, label %35

35:                                               ; preds = %32
  %36 = tail call i64 @strlen(ptr noundef nonnull dereferenceable(1) %34) #7
  %37 = trunc i64 %36 to i32
  %38 = add i32 %37, 1
  br label %39

39:                                               ; preds = %35, %32
  %.0 = phi i32 [ %38, %35 ], [ 0, %32 ]
  tail call void @packmem(ptr noundef %34, i32 noundef %.0, ptr noundef %2) #5
  %.pre = load ptr, ptr %4, align 8
  br label %40

40:                                               ; preds = %39, %10
  %41 = phi ptr [ %.pre, %39 ], [ %5, %10 ]
  %.not38 = icmp eq ptr %41, null
  br i1 %.not38, label %44, label %42

42:                                               ; preds = %40
  %43 = getelementptr inbounds nuw i8, ptr %0, i64 16
  store ptr null, ptr %43, align 8
  br label %44

44:                                               ; preds = %42, %40
  ret void
}